; ModuleID = 'source-C-CXX/6/686.c'
source_filename = "source-C-CXX/6/686.c"
target datalayout = "e-m:e-p270:32:32-p271:32:32-p272:64:64-i64:64-f80:128-n8:16:32:64-S128"
target triple = "x86_64-pc-linux-gnu"

@.str = private unnamed_addr constant [3 x i8] c"%s\00", align 1

; Function Attrs: nounwind sspstrong uwtable
define dso_local i32 @main() local_unnamed_addr #0 {
  %1 = alloca [100 x i8], align 16
  %2 = alloca [100 x i8], align 16
  %3 = getelementptr inbounds [100 x i8], [100 x i8]* %2, i64 0, i64 0
  %4 = alloca [100 x i8], align 16
  %5 = getelementptr inbounds [100 x i8], [100 x i8]* %1, i64 0, i64 0
  call void @llvm.lifetime.start.p0i8(i64 100, i8* nonnull %5) #6
  %6 = getelementptr inbounds [100 x i8], [100 x i8]* %2, i64 0, i64 0
  call void @llvm.lifetime.start.p0i8(i64 100, i8* nonnull %6) #6
  %7 = getelementptr inbounds [100 x i8], [100 x i8]* %4, i64 0, i64 0
  call void @llvm.lifetime.start.p0i8(i64 100, i8* nonnull %7) #6
  %8 = call i32 (i8*, ...) bitcast (i32 (...)* @gets to i32 (i8*, ...)*)(i8* nonnull %5) #6
  %9 = call i32 (i8*, ...) bitcast (i32 (...)* @gets to i32 (i8*, ...)*)(i8* nonnull %7) #6
  %10 = call i32 (i8*, ...) bitcast (i32 (...)* @gets to i32 (i8*, ...)*)(i8* nonnull %6) #6
  %11 = call i64 @strlen(i8* noundef nonnull %5) #7
  %12 = trunc i64 %11 to i32
  %13 = call i64 @strlen(i8* noundef nonnull %7) #7
  %14 = load i8, i8* %7, align 16
  %15 = icmp sgt i32 %12, 0
  br i1 %15, label %16, label %73

16:                                               ; preds = %0
  %17 = trunc i64 %13 to i32
  %18 = icmp sgt i32 %17, 0
  br i1 %18, label %21, label %19

19:                                               ; preds = %16
  %20 = and i64 %11, 4294967295
  br label %55

21:                                               ; preds = %16
  %22 = add i64 %13, 4294967295
  %23 = and i64 %22, 4294967295
  %24 = add nuw nsw i64 %23, 1
  %25 = and i64 %13, 4294967295
  %26 = getelementptr inbounds [100 x i8], [100 x i8]* %4, i64 0, i64 0
  %27 = load i8, i8* %26, align 16
  %28 = icmp eq i8 %14, %27
  br label %29

29:                                               ; preds = %21, %39
  %30 = phi i32 [ %41, %39 ], [ 0, %21 ]
  %31 = sext i32 %30 to i64
  %32 = getelementptr inbounds [100 x i8], [100 x i8]* %1, i64 0, i64 %31
  %33 = load i8, i8* %32, align 1, !tbaa !5
  %34 = icmp eq i8 %33, %14
  br i1 %34, label %35, label %39

35:                                               ; preds = %29
  br i1 %28, label %43, label %36

36:                                               ; preds = %49, %35
  %37 = phi i64 [ %31, %35 ], [ %47, %49 ]
  %38 = trunc i64 %37 to i32
  br label %39

39:                                               ; preds = %36, %29
  %40 = phi i32 [ %30, %29 ], [ %38, %36 ]
  %41 = add nsw i32 %40, 1
  %42 = icmp slt i32 %41, %12
  br i1 %42, label %29, label %73, !llvm.loop !8

43:                                               ; preds = %35, %49
  %44 = phi i64 [ %47, %49 ], [ %31, %35 ]
  %45 = phi i64 [ %46, %49 ], [ 0, %35 ]
  %46 = add nuw nsw i64 %45, 1
  %47 = add nsw i64 %44, 1
  %48 = icmp eq i64 %46, %25
  br i1 %48, label %60, label %49, !llvm.loop !10

49:                                               ; preds = %43
  %50 = getelementptr inbounds [100 x i8], [100 x i8]* %1, i64 0, i64 %47
  %51 = load i8, i8* %50, align 1, !tbaa !5
  %52 = getelementptr inbounds [100 x i8], [100 x i8]* %4, i64 0, i64 %46
  %53 = load i8, i8* %52, align 1, !tbaa !5
  %54 = icmp eq i8 %51, %53
  br i1 %54, label %43, label %36

55:                                               ; preds = %19, %70
  %56 = phi i64 [ 0, %19 ], [ %71, %70 ]
  %57 = getelementptr inbounds [100 x i8], [100 x i8]* %1, i64 0, i64 %56
  %58 = load i8, i8* %57, align 1, !tbaa !5
  %59 = icmp eq i8 %58, %14
  br i1 %59, label %62, label %70

60:                                               ; preds = %43
  %61 = add nsw i64 %24, %31
  br label %62

62:                                               ; preds = %55, %60
  %63 = phi i64 [ %61, %60 ], [ %56, %55 ]
  br i1 %18, label %64, label %73

64:                                               ; preds = %62
  %65 = sub i64 %63, %13
  %66 = shl i64 %65, 32
  %67 = ashr exact i64 %66, 32
  %68 = getelementptr [100 x i8], [100 x i8]* %1, i64 0, i64 %67
  %69 = and i64 %13, 4294967295
  call void @llvm.memcpy.p0i8.p0i8.i64(i8* align 1 %68, i8* nonnull align 16 %3, i64 %69, i1 false)
  br label %73

70:                                               ; preds = %55
  %71 = add nuw nsw i64 %56, 1
  %72 = icmp eq i64 %71, %20
  br i1 %72, label %73, label %55, !llvm.loop !8

73:                                               ; preds = %70, %39, %64, %0, %62
  %74 = call i32 (i8*, ...) @printf(i8* nonnull dereferenceable(1) getelementptr inbounds ([3 x i8], [3 x i8]* @.str, i64 0, i64 0), i8* nonnull %5)
  call void @llvm.lifetime.end.p0i8(i64 100, i8* nonnull %7) #6
  call void @llvm.lifetime.end.p0i8(i64 100, i8* nonnull %6) #6
  call void @llvm.lifetime.end.p0i8(i64 100, i8* nonnull %5) #6
  ret i32 0
}

; Function Attrs: argmemonly mustprogress nofree nosync nounwind willreturn
declare void @llvm.lifetime.start.p0i8(i64 immarg, i8* nocapture) #1

declare i32 @gets(...) local_unnamed_addr #2

; Function Attrs: argmemonly mustprogress nofree nounwind readonly willreturn
declare i64 @strlen(i8* nocapture) local_unnamed_addr #3

; Function Attrs: nofree nounwind
declare noundef i32 @printf(i8* nocapture noundef readonly, ...) local_unnamed_addr #4

; Function Attrs: argmemonly mustprogress nofree nosync nounwind willreturn
declare void @llvm.lifetime.end.p0i8(i64 immarg, i8* nocapture) #1

; Function Attrs: argmemonly nofree nounwind willreturn
declare void @llvm.memcpy.p0i8.p0i8.i64(i8* noalias nocapture writeonly, i8* noalias nocapture readonly, i64, i1 immarg) #5


!llvm.module.flags = !{!0, !1, !2, !3}
!llvm.ident = !{!4}

!0 = !{i32 1, !"wchar_size", i32 4}
!1 = !{i32 7, !"PIC Level", i32 2}
!2 = !{i32 7, !"PIE Level", i32 2}
!3 = !{i32 7, !"uwtable", i32 1}
!4 = !{!"clang version 13.0.0"}
!5 = !{!6, !6, i64 0}
!6 = !{!"omnipotent char", !7, i64 0}
!7 = !{!"Simple C/C++ TBAA"}
!8 = distinct !{!8, !9}
!9 = !{!"llvm.loop.mustprogress"}
!10 = distinct !{!10, !9}
